target datalayout = "e-m:e-p270:32:32-p271:32:32-p272:64:64-i64:64-i128:128-f80:128-n8:16:32:64-S128"
target triple = "x86_64-pc-linux-gnu"

%struct.AVFilterContext = type { ptr, ptr, ptr, ptr, ptr, i32, ptr, ptr, i32, ptr, ptr, i32, i32, ptr, ptr, ptr, ptr, i32, ptr, i32, i32 }
%struct.AVChannelLayout = type { i32, i32, %union.anon.1, ptr }
%union.anon.1 = type { i64 }
%struct.AVRational = type { i32, i32 }
%struct.LumakeyContext = type { ptr, double, double, double, i32, i32, i32, i32, ptr }
%struct.AVFrame = type { [8 x ptr], [8 x i32], ptr, i32, i32, i32, i32, i32, %struct.AVRational, i64, i64, %struct.AVRational, i32, ptr, i32, i32, [8 x ptr], ptr, i32, ptr, i32, i32, i32, i32, i32, i32, i32, i64, ptr, i32, ptr, ptr, i64, i64, i64, i64, ptr, %struct.AVChannelLayout, i64 }

; Function Attrs: nounwind uwtable
define internal i32 @do_lumakey_slice16(ptr noundef %0, ptr noundef %1, i32 noundef %2, i32 noundef %3) #0 {
  %5 = alloca ptr, align 8
  %6 = alloca ptr, align 8
  %7 = alloca i32, align 4
  %8 = alloca i32, align 4
  %9 = alloca ptr, align 8
  %10 = alloca ptr, align 8
  %11 = alloca i32, align 4
  %12 = alloca i32, align 4
  %13 = alloca ptr, align 8
  %14 = alloca ptr, align 8
  %15 = alloca i32, align 4
  %16 = alloca i32, align 4
  %17 = alloca i32, align 4
  %18 = alloca i32, align 4
  %19 = alloca i32, align 4
  %20 = alloca i32, align 4
  store ptr %0, ptr %5, align 8, !tbaa !4
  store ptr %1, ptr %6, align 8, !tbaa !61
  store i32 %2, ptr %7, align 4, !tbaa !11
  store i32 %3, ptr %8, align 4, !tbaa !11
  call void @llvm.lifetime.start.p0(i64 8, ptr %9) #5
  %21 = load ptr, ptr %5, align 8, !tbaa !4
  %22 = getelementptr inbounds nuw %struct.AVFilterContext, ptr %21, i32 0, i32 9
  %23 = load ptr, ptr %22, align 8, !tbaa !36
  store ptr %23, ptr %9, align 8, !tbaa !37
  call void @llvm.lifetime.start.p0(i64 8, ptr %10) #5
  %24 = load ptr, ptr %6, align 8, !tbaa !61
  store ptr %24, ptr %10, align 8, !tbaa !26
  call void @llvm.lifetime.start.p0(i64 4, ptr %11) #5
  %25 = load ptr, ptr %10, align 8, !tbaa !26
  %26 = getelementptr inbounds nuw %struct.AVFrame, ptr %25, i32 0, i32 4
  %27 = load i32, ptr %26, align 4, !tbaa !42
  %28 = load i32, ptr %7, align 4, !tbaa !11
  %29 = mul nsw i32 %27, %28
  %30 = load i32, ptr %8, align 4, !tbaa !11
  %31 = sdiv i32 %29, %30
  store i32 %31, ptr %11, align 4, !tbaa !11
  call void @llvm.lifetime.start.p0(i64 4, ptr %12) #5
  %32 = load ptr, ptr %10, align 8, !tbaa !26
  %33 = getelementptr inbounds nuw %struct.AVFrame, ptr %32, i32 0, i32 4
  %34 = load i32, ptr %33, align 4, !tbaa !42
  %35 = load i32, ptr %7, align 4, !tbaa !11
  %36 = add nsw i32 %35, 1
  %37 = mul nsw i32 %34, %36
  %38 = load i32, ptr %8, align 4, !tbaa !11
  %39 = sdiv i32 %37, %38
  store i32 %39, ptr %12, align 4, !tbaa !11
  call void @llvm.lifetime.start.p0(i64 8, ptr %13) #5
  %40 = load ptr, ptr %10, align 8, !tbaa !26
  %41 = getelementptr inbounds nuw %struct.AVFrame, ptr %40, i32 0, i32 0
  %42 = getelementptr inbounds [8 x ptr], ptr %41, i64 0, i64 3
  %43 = load ptr, ptr %42, align 8, !tbaa !9
  %44 = load i32, ptr %11, align 4, !tbaa !11
  %45 = load ptr, ptr %10, align 8, !tbaa !26
  %46 = getelementptr inbounds nuw %struct.AVFrame, ptr %45, i32 0, i32 1
  %47 = getelementptr inbounds [8 x i32], ptr %46, i64 0, i64 3
  %48 = load i32, ptr %47, align 4, !tbaa !11
  %49 = mul nsw i32 %44, %48
  %50 = sext i32 %49 to i64
  %51 = getelementptr inbounds i8, ptr %43, i64 %50
  store ptr %51, ptr %13, align 8, !tbaa !67
  call void @llvm.lifetime.start.p0(i64 8, ptr %14) #5
  %52 = load ptr, ptr %10, align 8, !tbaa !26
  %53 = getelementptr inbounds nuw %struct.AVFrame, ptr %52, i32 0, i32 0
  %54 = getelementptr inbounds [8 x ptr], ptr %53, i64 0, i64 0
  %55 = load ptr, ptr %54, align 8, !tbaa !9
  %56 = load i32, ptr %11, align 4, !tbaa !11
  %57 = load ptr, ptr %10, align 8, !tbaa !26
  %58 = getelementptr inbounds nuw %struct.AVFrame, ptr %57, i32 0, i32 1
  %59 = getelementptr inbounds [8 x i32], ptr %58, i64 0, i64 0
  %60 = load i32, ptr %59, align 8, !tbaa !11
  %61 = mul nsw i32 %56, %60
  %62 = sext i32 %61 to i64
  %63 = getelementptr inbounds i8, ptr %55, i64 %62
  store ptr %63, ptr %14, align 8, !tbaa !67
  call void @llvm.lifetime.start.p0(i64 4, ptr %15) #5
  %64 = load ptr, ptr %9, align 8, !tbaa !37
  %65 = getelementptr inbounds nuw %struct.LumakeyContext, ptr %64, i32 0, i32 6
  %66 = load i32, ptr %65, align 8, !tbaa !59
  store i32 %66, ptr %15, align 4, !tbaa !11
  call void @llvm.lifetime.start.p0(i64 4, ptr %16) #5
  %67 = load ptr, ptr %9, align 8, !tbaa !37
  %68 = getelementptr inbounds nuw %struct.LumakeyContext, ptr %67, i32 0, i32 4
  %69 = load i32, ptr %68, align 8, !tbaa !56
  store i32 %69, ptr %16, align 4, !tbaa !11
  call void @llvm.lifetime.start.p0(i64 4, ptr %17) #5
  %70 = load ptr, ptr %9, align 8, !tbaa !37
  %71 = getelementptr inbounds nuw %struct.LumakeyContext, ptr %70, i32 0, i32 5
  %72 = load i32, ptr %71, align 4, !tbaa !57
  store i32 %72, ptr %17, align 4, !tbaa !11
  call void @llvm.lifetime.start.p0(i64 4, ptr %18) #5
  %73 = load ptr, ptr %9, align 8, !tbaa !37
  %74 = getelementptr inbounds nuw %struct.LumakeyContext, ptr %73, i32 0, i32 7
  %75 = load i32, ptr %74, align 4, !tbaa !60
  store i32 %75, ptr %18, align 4, !tbaa !11
  call void @llvm.lifetime.start.p0(i64 4, ptr %19) #5
  call void @llvm.lifetime.start.p0(i64 4, ptr %20) #5
  %76 = load i32, ptr %11, align 4, !tbaa !11
  store i32 %76, ptr %20, align 4, !tbaa !11
  br label %77

77:                                               ; preds = %205, %4
  %78 = load i32, ptr %20, align 4, !tbaa !11
  %79 = load i32, ptr %12, align 4, !tbaa !11
  %80 = icmp slt i32 %78, %79
  br i1 %80, label %81, label %208

81:                                               ; preds = %77
  store i32 0, ptr %19, align 4, !tbaa !11
  br label %82

82:                                               ; preds = %185, %81
  %83 = load i32, ptr %19, align 4, !tbaa !11
  %84 = load ptr, ptr %10, align 8, !tbaa !26
  %85 = getelementptr inbounds nuw %struct.AVFrame, ptr %84, i32 0, i32 3
  %86 = load i32, ptr %85, align 8, !tbaa !62
  %87 = icmp slt i32 %83, %86
  br i1 %87, label %88, label %188

88:                                               ; preds = %82
  %89 = load ptr, ptr %14, align 8, !tbaa !67
  %90 = load i32, ptr %19, align 4, !tbaa !11
  %91 = sext i32 %90 to i64
  %92 = getelementptr inbounds i16, ptr %89, i64 %91
  %93 = load i16, ptr %92, align 2, !tbaa !69
  %94 = zext i16 %93 to i32
  %95 = load i32, ptr %17, align 4, !tbaa !11
  %96 = icmp sge i32 %94, %95
  br i1 %96, label %97, label %111

97:                                               ; preds = %88
  %98 = load ptr, ptr %14, align 8, !tbaa !67
  %99 = load i32, ptr %19, align 4, !tbaa !11
  %100 = sext i32 %99 to i64
  %101 = getelementptr inbounds i16, ptr %98, i64 %100
  %102 = load i16, ptr %101, align 2, !tbaa !69
  %103 = zext i16 %102 to i32
  %104 = load i32, ptr %16, align 4, !tbaa !11
  %105 = icmp sle i32 %103, %104
  br i1 %105, label %106, label %111

106:                                              ; preds = %97
  %107 = load ptr, ptr %13, align 8, !tbaa !67
  %108 = load i32, ptr %19, align 4, !tbaa !11
  %109 = sext i32 %108 to i64
  %110 = getelementptr inbounds i16, ptr %107, i64 %109
  store i16 0, ptr %110, align 2, !tbaa !69
  br label %184

111:                                              ; preds = %97, %88
  %112 = load ptr, ptr %14, align 8, !tbaa !67
  %113 = load i32, ptr %19, align 4, !tbaa !11
  %114 = sext i32 %113 to i64
  %115 = getelementptr inbounds i16, ptr %112, i64 %114
  %116 = load i16, ptr %115, align 2, !tbaa !69
  %117 = zext i16 %116 to i32
  %118 = load i32, ptr %17, align 4, !tbaa !11
  %119 = load i32, ptr %15, align 4, !tbaa !11
  %120 = sub nsw i32 %118, %119
  %121 = icmp sgt i32 %117, %120
  br i1 %121, label %122, label %183

122:                                              ; preds = %111
  %123 = load ptr, ptr %14, align 8, !tbaa !67
  %124 = load i32, ptr %19, align 4, !tbaa !11
  %125 = sext i32 %124 to i64
  %126 = getelementptr inbounds i16, ptr %123, i64 %125
  %127 = load i16, ptr %126, align 2, !tbaa !69
  %128 = zext i16 %127 to i32
  %129 = load i32, ptr %16, align 4, !tbaa !11
  %130 = load i32, ptr %15, align 4, !tbaa !11
  %131 = add nsw i32 %129, %130
  %132 = icmp slt i32 %128, %131
  br i1 %132, label %133, label %183

133:                                              ; preds = %122
  %134 = load ptr, ptr %14, align 8, !tbaa !67
  %135 = load i32, ptr %19, align 4, !tbaa !11
  %136 = sext i32 %135 to i64
  %137 = getelementptr inbounds i16, ptr %134, i64 %136
  %138 = load i16, ptr %137, align 2, !tbaa !69
  %139 = zext i16 %138 to i32
  %140 = load i32, ptr %17, align 4, !tbaa !11
  %141 = icmp slt i32 %139, %140
  br i1 %141, label %142, label %164

142:                                              ; preds = %133
  %143 = load i32, ptr %18, align 4, !tbaa !11
  %144 = load ptr, ptr %14, align 8, !tbaa !67
  %145 = load i32, ptr %19, align 4, !tbaa !11
  %146 = sext i32 %145 to i64
  %147 = getelementptr inbounds i16, ptr %144, i64 %146
  %148 = load i16, ptr %147, align 2, !tbaa !69
  %149 = zext i16 %148 to i32
  %150 = load i32, ptr %17, align 4, !tbaa !11
  %151 = sub nsw i32 %149, %150
  %152 = load i32, ptr %15, align 4, !tbaa !11
  %153 = add nsw i32 %151, %152
  %154 = load i32, ptr %18, align 4, !tbaa !11
  %155 = mul nsw i32 %153, %154
  %156 = load i32, ptr %15, align 4, !tbaa !11
  %157 = sdiv i32 %155, %156
  %158 = sub nsw i32 %143, %157
  %159 = trunc i32 %158 to i16
  %160 = load ptr, ptr %13, align 8, !tbaa !67
  %161 = load i32, ptr %19, align 4, !tbaa !11
  %162 = sext i32 %161 to i64
  %163 = getelementptr inbounds i16, ptr %160, i64 %162
  store i16 %159, ptr %163, align 2, !tbaa !69
  br label %182

164:                                              ; preds = %133
  %165 = load ptr, ptr %14, align 8, !tbaa !67
  %166 = load i32, ptr %19, align 4, !tbaa !11
  %167 = sext i32 %166 to i64
  %168 = getelementptr inbounds i16, ptr %165, i64 %167
  %169 = load i16, ptr %168, align 2, !tbaa !69
  %170 = zext i16 %169 to i32
  %171 = load i32, ptr %16, align 4, !tbaa !11
  %172 = sub nsw i32 %170, %171
  %173 = load i32, ptr %18, align 4, !tbaa !11
  %174 = mul nsw i32 %172, %173
  %175 = load i32, ptr %15, align 4, !tbaa !11
  %176 = sdiv i32 %174, %175
  %177 = trunc i32 %176 to i16
  %178 = load ptr, ptr %13, align 8, !tbaa !67
  %179 = load i32, ptr %19, align 4, !tbaa !11
  %180 = sext i32 %179 to i64
  %181 = getelementptr inbounds i16, ptr %178, i64 %180
  store i16 %177, ptr %181, align 2, !tbaa !69
  br label %182

182:                                              ; preds = %164, %142
  br label %183

183:                                              ; preds = %182, %122, %111
  br label %184

184:                                              ; preds = %183, %106
  br label %185

185:                                              ; preds = %184
  %186 = load i32, ptr %19, align 4, !tbaa !11
  %187 = add nsw i32 %186, 1
  store i32 %187, ptr %19, align 4, !tbaa !11
  br label %82, !llvm.loop !71

188:                                              ; preds = %82
  %189 = load ptr, ptr %10, align 8, !tbaa !26
  %190 = getelementptr inbounds nuw %struct.AVFrame, ptr %189, i32 0, i32 1
  %191 = getelementptr inbounds [8 x i32], ptr %190, i64 0, i64 0
  %192 = load i32, ptr %191, align 8, !tbaa !11
  %193 = sdiv i32 %192, 2
  %194 = load ptr, ptr %14, align 8, !tbaa !67
  %195 = sext i32 %193 to i64
  %196 = getelementptr inbounds i16, ptr %194, i64 %195
  store ptr %196, ptr %14, align 8, !tbaa !67
  %197 = load ptr, ptr %10, align 8, !tbaa !26
  %198 = getelementptr inbounds nuw %struct.AVFrame, ptr %197, i32 0, i32 1
  %199 = getelementptr inbounds [8 x i32], ptr %198, i64 0, i64 3
  %200 = load i32, ptr %199, align 4, !tbaa !11
  %201 = sdiv i32 %200, 2
  %202 = load ptr, ptr %13, align 8, !tbaa !67
  %203 = sext i32 %201 to i64
  %204 = getelementptr inbounds i16, ptr %202, i64 %203
  store ptr %204, ptr %13, align 8, !tbaa !67
  br label %205

205:                                              ; preds = %188
  %206 = load i32, ptr %20, align 4, !tbaa !11
  %207 = add nsw i32 %206, 1
  store i32 %207, ptr %20, align 4, !tbaa !11
  br label %77, !llvm.loop !72

208:                                              ; preds = %77
  call void @llvm.lifetime.end.p0(i64 4, ptr %20) #5
  call void @llvm.lifetime.end.p0(i64 4, ptr %19) #5
  call void @llvm.lifetime.end.p0(i64 4, ptr %18) #5
  call void @llvm.lifetime.end.p0(i64 4, ptr %17) #5
  call void @llvm.lifetime.end.p0(i64 4, ptr %16) #5
  call void @llvm.lifetime.end.p0(i64 4, ptr %15) #5
  call void @llvm.lifetime.end.p0(i64 8, ptr %14) #5
  call void @llvm.lifetime.end.p0(i64 8, ptr %13) #5
  call void @llvm.lifetime.end.p0(i64 4, ptr %12) #5
  call void @llvm.lifetime.end.p0(i64 4, ptr %11) #5
  call void @llvm.lifetime.end.p0(i64 8, ptr %10) #5
  call void @llvm.lifetime.end.p0(i64 8, ptr %9) #5
  ret i32 0
}