; Function Attrs: nofree norecurse nosync nounwind memory(readwrite, inaccessiblemem: none) uwtable
define internal noundef i32 @do_lumakey_slice16(ptr noundef readonly captures(none) %0, ptr noundef readonly captures(none) %1, i32 noundef %2, i32 noundef %3) #3 {
  %5 = getelementptr inbounds nuw i8, ptr %0, i64 72
  %6 = load ptr, ptr %5, align 8, !tbaa !32
  %7 = getelementptr inbounds nuw i8, ptr %1, i64 108
  %8 = load i32, ptr %7, align 4, !tbaa !45
  %9 = mul nsw i32 %8, %2
  %10 = sdiv i32 %9, %3
  %11 = add nsw i32 %2, 1
  %12 = mul nsw i32 %8, %11
  %13 = sdiv i32 %12, %3
  %14 = getelementptr inbounds nuw i8, ptr %6, i64 40
  %15 = load i32, ptr %14, align 8, !tbaa !44
  %16 = getelementptr inbounds nuw i8, ptr %6, i64 32
  %17 = load i32, ptr %16, align 8, !tbaa !41
  %18 = getelementptr inbounds nuw i8, ptr %6, i64 36
  %19 = load i32, ptr %18, align 4, !tbaa !42
  %20 = getelementptr inbounds nuw i8, ptr %6, i64 44
  %21 = load i32, ptr %20, align 4, !tbaa !39
  %22 = icmp slt i32 %10, %13
  br i1 %22, label %.preheader.lr.ph, label %._crit_edge76

.preheader.lr.ph:                                 ; preds = %4
  %23 = getelementptr inbounds nuw i8, ptr %1, i64 64
  %24 = load i32, ptr %23, align 8, !tbaa !54
  %25 = getelementptr inbounds nuw i8, ptr %1, i64 76
  %26 = load i32, ptr %25, align 4, !tbaa !54
  %27 = getelementptr inbounds nuw i8, ptr %1, i64 104
  %28 = load i32, ptr %27, align 8, !tbaa !52
  %29 = icmp sgt i32 %28, 0
  %30 = sub nsw i32 %19, %15
  %31 = add nsw i32 %17, %15
  %32 = sub i32 %15, %19
  %33 = sdiv i32 %24, 2
  %34 = sext i32 %33 to i64
  %35 = sdiv i32 %26, 2
  %36 = sext i32 %35 to i64
  br i1 %29, label %.preheader.us.preheader, label %._crit_edge76

.preheader.us.preheader:                          ; preds = %.preheader.lr.ph
  %37 = getelementptr inbounds nuw i8, ptr %1, i64 24
  %38 = load ptr, ptr %37, align 8, !tbaa !53
  %39 = mul nsw i32 %26, %10
  %40 = sext i32 %39 to i64
  %41 = getelementptr inbounds i8, ptr %38, i64 %40
  %42 = load ptr, ptr %1, align 8, !tbaa !53
  %43 = mul nsw i32 %24, %10
  %44 = sext i32 %43 to i64
  %45 = getelementptr inbounds i8, ptr %42, i64 %44
  %wide.trip.count = zext nneg i32 %28 to i64
  br label %.preheader.us

.preheader.us:                                    ; preds = %.preheader.us.preheader, %._crit_edge.us
  %.075.us = phi i32 [ %69, %._crit_edge.us ], [ %10, %.preheader.us.preheader ]
  %.06474.us = phi ptr [ %68, %._crit_edge.us ], [ %41, %.preheader.us.preheader ]
  %.06573.us = phi ptr [ %67, %._crit_edge.us ], [ %45, %.preheader.us.preheader ]
  br label %46

46:                                               ; preds = %.preheader.us, %66
  %indvars.iv = phi i64 [ 0, %.preheader.us ], [ %indvars.iv.next, %66 ]
  %47 = getelementptr inbounds nuw i16, ptr %.06573.us, i64 %indvars.iv
  %48 = load i16, ptr %47, align 2, !tbaa !60
  %49 = zext i16 %48 to i32
  %.not.us = icmp sgt i32 %19, %49
  %.not69.us = icmp slt i32 %17, %49
  %or.cond.us = select i1 %.not.us, i1 true, i1 %.not69.us
  br i1 %or.cond.us, label %50, label %.sink.split

50:                                               ; preds = %46
  %51 = icmp slt i32 %30, %49
  %52 = icmp sgt i32 %31, %49
  %or.cond71.us = select i1 %51, i1 %52, i1 false
  br i1 %or.cond71.us, label %53, label %66

53:                                               ; preds = %50
  br i1 %.not.us, label %59, label %54

54:                                               ; preds = %53
  %55 = sub nsw i32 %49, %17
  %56 = mul nsw i32 %55, %21
  %57 = sdiv i32 %56, %15
  %58 = trunc i32 %57 to i16
  br label %.sink.split

59:                                               ; preds = %53
  %60 = add i32 %32, %49
  %61 = mul nsw i32 %60, %21
  %62 = sdiv i32 %61, %15
  %63 = sub nsw i32 %21, %62
  %64 = trunc i32 %63 to i16
  br label %.sink.split

.sink.split:                                      ; preds = %46, %54, %59
  %.sink = phi i16 [ %64, %59 ], [ %58, %54 ], [ 0, %46 ]
  %65 = getelementptr inbounds nuw i16, ptr %.06474.us, i64 %indvars.iv
  store i16 %.sink, ptr %65, align 2, !tbaa !60
  br label %66

66:                                               ; preds = %.sink.split, %50
  %indvars.iv.next = add nuw nsw i64 %indvars.iv, 1
  %exitcond.not = icmp eq i64 %indvars.iv.next, %wide.trip.count
  br i1 %exitcond.not, label %._crit_edge.us, label %46, !llvm.loop !62

._crit_edge.us:                                   ; preds = %66
  %67 = getelementptr inbounds i16, ptr %.06573.us, i64 %34
  %68 = getelementptr inbounds i16, ptr %.06474.us, i64 %36
  %69 = add nsw i32 %.075.us, 1
  %exitcond79.not = icmp eq i32 %69, %13
  br i1 %exitcond79.not, label %._crit_edge76, label %.preheader.us, !llvm.loop !63

._crit_edge76:                                    ; preds = %._crit_edge.us, %.preheader.lr.ph, %4
  ret i32 0
}